; Function Attrs: mustprogress uwtable
define internal noundef nonnull ptr @"_ZNSt17_Function_handlerIFPN5folly10TimekeeperEvENS0_6detail12_GLOBAL__N_13$_0EE9_M_invokeERKSt9_Any_data"(ptr nonnull readnone align 8 captures(none) %0) #1 align 2 personality ptr @__gxx_personality_v0 {
  %2 = load i8, ptr @_ZN3fLB47FLAGS_folly_futures_use_thread_wheel_timekeeperE, align 1, !tbaa !131, !range !135, !noundef !136
  %3 = trunc nuw i8 %2 to i1
  br i1 %3, label %4, label %8

4:                                                ; preds = %1
  %5 = tail call noalias noundef nonnull dereferenceable(672) ptr @_Znwm(i64 noundef 672) #36
  invoke void @_ZN5folly21ThreadWheelTimekeeperC1Ev(ptr noundef nonnull align 16 dereferenceable(664) %5)
          to label %"_ZSt10__invoke_rIPN5folly10TimekeeperERNS0_6detail12_GLOBAL__N_13$_0EJEENSt9enable_ifIX16is_invocable_r_vIT_T0_DpT1_EES8_E4typeEOS9_DpOSA_.exit" unwind label %6

6:                                                ; preds = %4
  %7 = landingpad { ptr, i32 }
          cleanup
  tail call void @_ZdlPvm(ptr noundef nonnull %5, i64 noundef 672) #35
  br label %12

8:                                                ; preds = %1
  %9 = tail call noalias noundef nonnull dereferenceable(32) ptr @_Znwm(i64 noundef 32) #36
  invoke void @_ZN5folly14HeapTimekeeperC1Ev(ptr noundef nonnull align 8 dereferenceable(32) %9)
          to label %"_ZSt10__invoke_rIPN5folly10TimekeeperERNS0_6detail12_GLOBAL__N_13$_0EJEENSt9enable_ifIX16is_invocable_r_vIT_T0_DpT1_EES8_E4typeEOS9_DpOSA_.exit" unwind label %10

10:                                               ; preds = %8
  %11 = landingpad { ptr, i32 }
          cleanup
  tail call void @_ZdlPvm(ptr noundef nonnull %9, i64 noundef 32) #35
  br label %12

12:                                               ; preds = %10, %6
  %.pn.i.i.i = phi { ptr, i32 } [ %7, %6 ], [ %11, %10 ]
  resume { ptr, i32 } %.pn.i.i.i

"_ZSt10__invoke_rIPN5folly10TimekeeperERNS0_6detail12_GLOBAL__N_13$_0EJEENSt9enable_ifIX16is_invocable_r_vIT_T0_DpT1_EES8_E4typeEOS9_DpOSA_.exit": ; preds = %4, %8
  %.03.i.i.i = phi ptr [ %5, %4 ], [ %9, %8 ]
  ret ptr %.03.i.i.i
}